; Function Attrs: nounwind uwtable
define ptr @l_Lean_Omega_Constraint_translate___lambda__1___boxed(ptr noundef %0, ptr noundef %1) #1 {
  %3 = ptrtoint ptr %1 to i64
  %4 = and i64 %3, 1
  %.not.i.i = icmp eq i64 %4, 0
  br i1 %.not.i.i, label %24, label %5, !prof !4

5:                                                ; preds = %2
  %6 = ptrtoint ptr %0 to i64
  %7 = and i64 %6, 1
  %.not7.i.i = icmp eq i64 %7, 0
  br i1 %.not7.i.i, label %l_Lean_Omega_Constraint_translate___lambda__1.exit.thread10, label %9, !prof !4

l_Lean_Omega_Constraint_translate___lambda__1.exit.thread10: ; preds = %5
  %8 = tail call ptr @lean_int_big_add(ptr noundef %1, ptr noundef %0) #4
  br label %lean_dec.exit5

9:                                                ; preds = %5
  %10 = shl i64 %3, 31
  %11 = ashr i64 %10, 32
  %12 = shl i64 %6, 31
  %13 = ashr i64 %12, 32
  %14 = add nsw i64 %11, %13
  %15 = add nsw i64 %14, 2147483648
  %16 = icmp ult i64 %15, 4294967296
  br i1 %16, label %17, label %22, !prof !5

17:                                               ; preds = %9
  %18 = shl nsw i64 %14, 1
  %19 = and i64 %18, 8589934590
  %20 = or disjoint i64 %19, 1
  %21 = inttoptr i64 %20 to ptr
  br label %lean_dec.exit5

22:                                               ; preds = %9
  %23 = tail call ptr @lean_big_int64_to_int(i64 noundef range(i64 -4294967296, 4294967296) %14) #4
  br label %lean_dec.exit5

24:                                               ; preds = %2
  %25 = tail call ptr @lean_int_big_add(ptr noundef %1, ptr noundef %0) #4
  %26 = load i32, ptr %1, align 4, !tbaa !6
  %27 = icmp sgt i32 %26, 1
  br i1 %27, label %28, label %30, !prof !5

28:                                               ; preds = %24
  %29 = add nsw i32 %26, -1
  store i32 %29, ptr %1, align 4, !tbaa !6
  br label %lean_dec.exit5

30:                                               ; preds = %24
  %.not.i = icmp eq i32 %26, 0
  br i1 %.not.i, label %lean_dec.exit5, label %31

31:                                               ; preds = %30
  tail call void @lean_dec_ref_cold(ptr noundef nonnull %1) #4
  br label %lean_dec.exit5

lean_dec.exit5:                                   ; preds = %22, %17, %31, %30, %28, %l_Lean_Omega_Constraint_translate___lambda__1.exit.thread10
  %.0.i.i9 = phi ptr [ %8, %l_Lean_Omega_Constraint_translate___lambda__1.exit.thread10 ], [ %25, %28 ], [ %25, %30 ], [ %25, %31 ], [ %23, %22 ], [ %21, %17 ]
  %32 = ptrtoint ptr %0 to i64
  %33 = and i64 %32, 1
  %.not = icmp eq i64 %33, 0
  br i1 %.not, label %34, label %lean_dec.exit

34:                                               ; preds = %lean_dec.exit5
  %35 = load i32, ptr %0, align 4, !tbaa !6
  %36 = icmp sgt i32 %35, 1
  br i1 %36, label %37, label %39, !prof !5

37:                                               ; preds = %34
  %38 = add nsw i32 %35, -1
  store i32 %38, ptr %0, align 4, !tbaa !6
  br label %lean_dec.exit

39:                                               ; preds = %34
  %.not.i6 = icmp eq i32 %35, 0
  br i1 %.not.i6, label %lean_dec.exit, label %40

40:                                               ; preds = %39
  tail call void @lean_dec_ref_cold(ptr noundef nonnull %0) #4
  br label %lean_dec.exit

lean_dec.exit:                                    ; preds = %40, %39, %37, %lean_dec.exit5
  ret ptr %.0.i.i9
}